target datalayout = "e-m:e-p270:32:32-p271:32:32-p272:64:64-i64:64-i128:128-f80:128-n8:16:32:64-S128"
target triple = "x86_64-unknown-linux-gnu"

%class.symbol = type { ptr }
%"class.datalog::context" = type <{ ptr, ptr, ptr, %class.params_ref, ptr, i8, i8, [6 x i8], %class.symbol, %"class.datalog::dl_decl_util", %class.th_rewriter, %class.var_subst, %"class.datalog::rule_manager", %"class.datalog::context::contains_pred", %"class.datalog::rule_properties", %"class.datalog::rule_transformer", %class.trail_stack, %class.ref_vector.49, %class.bind_variables, %class.obj_map.87, %class.obj_hashtable.92, %class.map.98, %class.obj_map.102, %"class.datalog::rule_set", %"class.datalog::rule_set", %class.expr_free_vars, i32, [4 x i8], %class.ref_vector, %class.svector.85, %class.vector.126, %class.ref_vector, %class.ref, %class.ref.127, ptr, %class.scoped_ptr.128, i8, i8, i8, i8, i32, %class.obj_ref, %class.obj_ref, i32, [4 x i8] }>
%class.params_ref = type { ptr }
%"class.datalog::dl_decl_util" = type <{ ptr, %class.scoped_ptr, %class.scoped_ptr.0, i32, [4 x i8] }>
%class.scoped_ptr = type { ptr }
%class.scoped_ptr.0 = type { ptr }
%class.th_rewriter = type { ptr, %class.params_ref }
%class.var_subst = type { %class.beta_reducer, i8, [7 x i8] }
%class.beta_reducer = type <{ %class.rewriter_tpl, %struct.beta_reducer_cfg, [7 x i8] }>
%class.rewriter_tpl = type { %class.rewriter_core, ptr, i32, %class.ptr_vector.2, %class.var_shifter, %class.inv_var_shifter, %class.obj_ref, %class.obj_ref.11, %class.obj_ref.11, %class.svector.12 }
%class.rewriter_core = type { ptr, ptr, i8, i8, %class.ptr_vector, ptr, %class.svector, %class.ref_vector, %class.ptr_vector, ptr, %class.ref_vector.4, %class.obj_hashtable, ptr, i32, %class.svector.9 }
%class.svector = type { %class.vector.1 }
%class.vector.1 = type { ptr }
%class.ptr_vector = type { %class.vector }
%class.vector = type { ptr }
%class.ref_vector.4 = type { %class.ref_vector_core.5 }
%class.ref_vector_core.5 = type { %class.ref_manager_wrapper.6, %class.ptr_vector.7 }
%class.ref_manager_wrapper.6 = type { ptr }
%class.ptr_vector.7 = type { %class.vector.8 }
%class.vector.8 = type { ptr }
%class.obj_hashtable = type { %class.core_hashtable.base, [4 x i8] }
%class.core_hashtable.base = type <{ ptr, i32, i32, i32 }>
%class.svector.9 = type { %class.vector.10 }
%class.vector.10 = type { ptr }
%class.ptr_vector.2 = type { %class.vector.3 }
%class.vector.3 = type { ptr }
%class.var_shifter = type <{ %class.var_shifter_core, i32, i32, i32, [4 x i8] }>
%class.var_shifter_core = type { %class.rewriter_core }
%class.inv_var_shifter = type <{ %class.var_shifter_core, i32, [4 x i8] }>
%class.obj_ref.11 = type { ptr, ptr }
%class.svector.12 = type { %class.vector.13 }
%class.vector.13 = type { ptr }
%struct.beta_reducer_cfg = type { i8 }
%"class.datalog::rule_manager" = type { ptr, ptr, %"class.datalog::rule_counter", %class.used_vars, %class.uint_set, %class.expr_free_vars, %class.ref_vector.4, %class.obj_ref.11, %class.ref_vector, %class.svector.22, %class.hnf, %class.qe_lite, %class.label_rewriter, %"struct.datalog::uninterpreted_function_finder_proc", %"struct.datalog::quantifier_finder_proc", [5 x i8], %class.expr_sparse_mark, %"struct.datalog::fd_finder_proc" }
%"class.datalog::rule_counter" = type { %class.var_counter }
%class.var_counter = type { %class.counter, %class.ast_fast_mark, %class.expr_free_vars, %class.ptr_vector.2, %class.svector.12 }
%class.counter = type { %class.u_map }
%class.u_map = type { %class.map }
%class.map = type { %class.table2map }
%class.table2map = type { %class.core_hashtable.14 }
%class.core_hashtable.14 = type <{ ptr, i32, i32, i32, [4 x i8] }>
%class.ast_fast_mark = type { %class.ptr_buffer }
%class.ptr_buffer = type { %class.buffer }
%class.buffer = type { ptr, i32, i32, [16 x %"union.std::aligned_storage<8, 8>::type"] }
%"union.std::aligned_storage<8, 8>::type" = type { [8 x i8] }
%class.used_vars = type { %class.ptr_vector.16, %class.hashtable, %class.svector.20, i32, i32 }
%class.ptr_vector.16 = type { %class.vector.17 }
%class.vector.17 = type { ptr }
%class.hashtable = type { %class.core_hashtable.base.19, [4 x i8] }
%class.core_hashtable.base.19 = type <{ ptr, i32, i32, i32 }>
%class.svector.20 = type { %class.vector.21 }
%class.vector.21 = type { ptr }
%class.uint_set = type { %class.svector.12 }
%class.svector.22 = type { %class.vector.23 }
%class.vector.23 = type { ptr }
%class.hnf = type { ptr }
%class.qe_lite = type { ptr }
%class.label_rewriter = type { i32, %class.rewriter_tpl.24 }
%class.rewriter_tpl.24 = type { %class.rewriter_core, ptr, i32, %class.ptr_vector.2, %class.var_shifter, %class.inv_var_shifter, %class.obj_ref, %class.obj_ref.11, %class.obj_ref.11, %class.svector.12 }
%"struct.datalog::uninterpreted_function_finder_proc" = type { ptr, %"class.datatype::util", %"class.datalog::dl_decl_util", i8, ptr }
%"class.datatype::util" = type { ptr, i32, ptr, %class.obj_map, %class.obj_map.29, %class.obj_map.34, %class.obj_map.39, %class.obj_map.39, %class.obj_map.39, %class.obj_map.44, %class.obj_map.44, %class.obj_map.44, %class.ref_vector.49, %class.ref_vector_core.54, %class.ptr_vector.57, i32, %class.ptr_vector.16 }
%class.obj_map = type { %class.core_hashtable.25 }
%class.core_hashtable.25 = type <{ ptr, i32, i32, i32, [4 x i8] }>
%class.obj_map.29 = type { %class.core_hashtable.30 }
%class.core_hashtable.30 = type <{ ptr, i32, i32, i32, [4 x i8] }>
%class.obj_map.34 = type { %class.core_hashtable.35 }
%class.core_hashtable.35 = type <{ ptr, i32, i32, i32, [4 x i8] }>
%class.obj_map.39 = type { %class.core_hashtable.40 }
%class.core_hashtable.40 = type <{ ptr, i32, i32, i32, [4 x i8] }>
%class.obj_map.44 = type { %class.core_hashtable.45 }
%class.core_hashtable.45 = type <{ ptr, i32, i32, i32, [4 x i8] }>
%class.ref_vector_core.54 = type { %class.ptr_vector.55 }
%class.ptr_vector.55 = type { %class.vector.56 }
%class.vector.56 = type { ptr }
%class.ptr_vector.57 = type { %class.vector.58 }
%class.vector.58 = type { ptr }
%"struct.datalog::quantifier_finder_proc" = type { i8, i8, i8 }
%class.expr_sparse_mark = type { %class.obj_hashtable }
%"struct.datalog::fd_finder_proc" = type <{ ptr, %class.bv_util, i8, [7 x i8] }>
%class.bv_util = type { %class.bv_recognizers, ptr, ptr }
%class.bv_recognizers = type { i32 }
%"class.datalog::context::contains_pred" = type { %class.i_expr_pred, ptr }
%class.i_expr_pred = type { ptr }
%"class.datalog::rule_properties" = type <{ ptr, ptr, ptr, ptr, %"class.datatype::util", %"class.datalog::dl_decl_util", %class.arith_util, %class.bv_util, %class.array_util, %"class.recfun::util", i8, [7 x i8], ptr, %class.obj_map.59, %class.obj_map.64, %class.ptr_vector.69, %class.ptr_vector.69, %class.ptr_vector.69, i8, i8, [6 x i8] }>
%class.arith_util = type { ptr, ptr }
%class.array_util = type { %class.array_recognizers, ptr }
%class.array_recognizers = type { i32 }
%"class.recfun::util" = type { ptr, i32, ptr }
%class.obj_map.59 = type { %class.core_hashtable.60 }
%class.core_hashtable.60 = type <{ ptr, i32, i32, i32, [4 x i8] }>
%class.obj_map.64 = type { %class.core_hashtable.65 }
%class.core_hashtable.65 = type <{ ptr, i32, i32, i32, [4 x i8] }>
%class.ptr_vector.69 = type { %class.vector.70 }
%class.vector.70 = type { ptr }
%"class.datalog::rule_transformer" = type { ptr, ptr, i8, %class.svector.71 }
%class.svector.71 = type { %class.vector.72 }
%class.vector.72 = type { ptr }
%class.trail_stack = type { %class.ptr_vector.73, %class.svector.12, %class.region }
%class.ptr_vector.73 = type { %class.vector.74 }
%class.vector.74 = type { ptr }
%class.region = type { ptr, ptr, ptr, ptr, ptr }
%class.ref_vector.49 = type { %class.ref_vector_core.50 }
%class.ref_vector_core.50 = type { %class.ref_manager_wrapper.51, %class.ptr_vector.52 }
%class.ref_manager_wrapper.51 = type { ptr }
%class.ptr_vector.52 = type { %class.vector.53 }
%class.vector.53 = type { ptr }
%class.bind_variables = type { ptr, %class.ref_vector.4, %class.obj_map.75, %class.obj_map.80, %class.ref_vector, %class.ptr_vector.16, %class.svector.85, %class.ptr_vector.2, %class.ptr_vector.2 }
%class.obj_map.75 = type { %class.core_hashtable.76 }
%class.core_hashtable.76 = type <{ ptr, i32, i32, i32, [4 x i8] }>
%class.obj_map.80 = type { %class.core_hashtable.81 }
%class.core_hashtable.81 = type <{ ptr, i32, i32, i32, [4 x i8] }>
%class.obj_map.87 = type { %class.core_hashtable.88 }
%class.core_hashtable.88 = type <{ ptr, i32, i32, i32, [4 x i8] }>
%class.obj_hashtable.92 = type { %class.core_hashtable.base.96, [4 x i8] }
%class.core_hashtable.base.96 = type <{ ptr, i32, i32, i32 }>
%class.map.98 = type { %class.table2map.99 }
%class.table2map.99 = type { %class.core_hashtable.100 }
%class.core_hashtable.100 = type <{ ptr, i32, i32, i32, [4 x i8] }>
%class.obj_map.102 = type { %class.core_hashtable.103 }
%class.core_hashtable.103 = type <{ ptr, i32, i32, i32, [4 x i8] }>
%"class.datalog::rule_set" = type { ptr, ptr, %class.ref_vector.107, %class.obj_map.110, %"class.datalog::rule_dependencies", %class.scoped_ptr.120, %class.obj_hashtable.92, %class.obj_map.39, %class.obj_map.39, %class.ref_vector.121, %class.ptr_vector.69 }
%class.ref_vector.107 = type { %class.ref_vector_core.108 }
%class.ref_vector_core.108 = type { %class.ref_manager_wrapper.109, %class.ptr_vector.69 }
%class.ref_manager_wrapper.109 = type { ptr }
%class.obj_map.110 = type { %class.core_hashtable.111 }
%class.core_hashtable.111 = type <{ ptr, i32, i32, i32, [4 x i8] }>
%"class.datalog::rule_dependencies" = type { %class.obj_map.115, ptr, %class.ptr_vector.2, %class.expr_sparse_mark, %class.obj_hashtable.92 }
%class.obj_map.115 = type { %class.core_hashtable.116 }
%class.core_hashtable.116 = type <{ ptr, i32, i32, i32, [4 x i8] }>
%class.scoped_ptr.120 = type { ptr }
%class.ref_vector.121 = type { %class.ref_vector_core.122 }
%class.ref_vector_core.122 = type { %class.ref_manager_wrapper.123, %class.ptr_vector.124 }
%class.ref_manager_wrapper.123 = type { ptr }
%class.ptr_vector.124 = type { %class.vector.125 }
%class.vector.125 = type { ptr }
%class.expr_free_vars = type { %class.expr_sparse_mark, %class.ptr_vector.16, %class.ptr_vector.2 }
%class.svector.85 = type { %class.vector.86 }
%class.vector.86 = type { ptr }
%class.vector.126 = type { ptr }
%class.ref_vector = type { %class.ref_vector_core }
%class.ref_vector_core = type { %class.ref_manager_wrapper, %class.ptr_vector.2 }
%class.ref_manager_wrapper = type { ptr }
%class.ref = type { ptr }
%class.ref.127 = type { ptr }
%class.scoped_ptr.128 = type { ptr }
%class.obj_ref = type { ptr, ptr }

; Function Attrs: mustprogress nounwind uwtable
define linkonce_odr hidden noundef ptr @_ZNK10scoped_ptrIN7datalog11engine_baseEEptEv(ptr noundef nonnull align 8 dereferenceable(8) %this) #5 comdat align 2 {
entry:
  %this.addr = alloca ptr, align 8
  store ptr %this, ptr %this.addr, align 8
  %this1 = load ptr, ptr %this.addr, align 8
  %m_ptr = getelementptr inbounds %class.scoped_ptr.128, ptr %this1, i32 0, i32 0
  %0 = load ptr, ptr %m_ptr, align 8
  ret ptr %0
}

; Function Attrs: mustprogress uwtable
define hidden void @_ZN7datalog7context13add_invariantEP9func_declP4expr(ptr noundef nonnull align 8 dereferenceable(3556) %this, ptr noundef %pred, ptr noundef %property) #4 align 2 {
entry:
  %this.addr = alloca ptr, align 8
  %pred.addr = alloca ptr, align 8
  %property.addr = alloca ptr, align 8
  store ptr %this, ptr %this.addr, align 8
  store ptr %pred, ptr %pred.addr, align 8
  store ptr %property, ptr %property.addr, align 8
  %this1 = load ptr, ptr %this.addr, align 8
  call void @_ZN7datalog7context13ensure_engineEP4expr(ptr noundef nonnull align 8 dereferenceable(3556) %this1, ptr noundef null)
  %m_engine = getelementptr inbounds %"class.datalog::context", ptr %this1, i32 0, i32 35
  %call = call noundef ptr @_ZNK10scoped_ptrIN7datalog11engine_baseEEptEv(ptr noundef nonnull align 8 dereferenceable(8) %m_engine)
  %0 = load ptr, ptr %pred.addr, align 8
  %1 = load ptr, ptr %property.addr, align 8
  %vtable = load ptr, ptr %call, align 8
  %vfn = getelementptr inbounds ptr, ptr %vtable, i64 14
  %2 = load ptr, ptr %vfn, align 8
  call void %2(ptr noundef nonnull align 8 dereferenceable(48) %call, ptr noundef %0, ptr noundef %1)
  ret void
}